(dp0
S'ismarried'
p1
(dp2
(S'single'
p3
S'divorced'
p4
tp5
(dp6
S'ishouse'
p7
(dp8
(S'no'
p9
tp10
(dp11
S'income'
p12
(dp13
(F77.5
S'+'
p14
tp15
S'yes'
p16
s(F77.5
S'-'
p17
tp18
S'no'
p19
sss(S'yes'
p20
tp21
S'no'
p22
sss(S'married'
p23
tp24
S'no'
p25
ss.