(dp0
S'overdue'
p1
(dp2
(S'no'
p3
tp4
(dp5
S'married'
p6
(dp7
(S'single'
p8
S'married'
p9
tp10
(dp11
S'ishouse'
p12
(dp13
(S'no'
p14
tp15
S'60'
p16
s(S'yes'
p17
tp18
S'120'
p19
sss(S'divorced'
p20
tp21
S'220'
p22
sss(S'yes'
p23
tp24
(dp25
g6
(dp26
(S'single'
p27
tp28
S'90'
p29
s(S'divorced'
p30
tp31
S'95'
p32
ssss.